target datalayout = "e-m:e-p270:32:32-p271:32:32-p272:64:64-i64:64-i128:128-f80:128-n8:16:32:64-S128"
target triple = "x86_64-pc-linux-gnu"

%struct.dt_pthread_mutex_t = type { %union.pthread_mutex_t }
%union.pthread_mutex_t = type { %struct.__pthread_mutex_s }
%struct.__pthread_mutex_s = type { i32, i32, i32, i32, i32, i16, i16, %struct.__pthread_internal_list }
%struct.__pthread_internal_list = type { ptr, ptr }
%struct.dt_iop_module_t = type { i32, ptr, ptr, ptr, ptr, ptr, ptr, ptr, ptr, ptr, ptr, ptr, ptr, ptr, ptr, ptr, ptr, ptr, ptr, ptr, ptr, ptr, ptr, ptr, ptr, ptr, ptr, ptr, ptr, ptr, ptr, ptr, ptr, ptr, ptr, ptr, ptr, ptr, ptr, ptr, ptr, ptr, ptr, ptr, ptr, ptr, ptr, ptr, ptr, ptr, ptr, ptr, ptr, ptr, ptr, ptr, ptr, [20 x i8], i32, i32, i32, i32, i32, i32, i32, [8 x i8], [4 x float], [4 x float], [4 x float], [4 x float], [4 x float], [4 x float], ptr, %struct.dt_dev_histogram_stats_t, [4 x i32], i32, i32, ptr, i32, i32, ptr, ptr, i32, ptr, %struct.dt_pthread_mutex_t, ptr, ptr, ptr, ptr, %struct.anon, ptr, ptr, ptr, ptr, ptr, ptr, ptr, i32, ptr, ptr, ptr, ptr, ptr, ptr, ptr, i32, ptr, i32, [128 x i8], i32, ptr, ptr, i32, [12 x i8] }
%struct.dt_dev_histogram_stats_t = type { i32, i64, i32, i32 }
%struct.anon = type { %struct.anon.0, %struct.anon.1 }
%struct.anon.0 = type { ptr, ptr }
%struct.anon.1 = type { ptr, i32 }
%struct.dt_iop_gui_blend_data_t = type { i32, i32, i32, i32, i32, i32, i32, ptr, ptr, ptr, ptr, ptr, ptr, ptr, ptr, ptr, ptr, ptr, ptr, ptr, [2 x %struct.dt_iop_gui_blendif_filter_t], ptr, ptr, ptr, ptr, ptr, ptr, ptr, ptr, ptr, ptr, ptr, ptr, i32, i32, ptr, i32, [8 x [2 x i32]], i32, i32, ptr, i32, ptr, ptr, ptr, [5 x ptr], [5 x i32], ptr, ptr, ptr, i32, ptr, ptr, i32, %struct.dt_pthread_mutex_t }
%struct.dt_iop_gui_blendif_filter_t = type { ptr, ptr, [4 x ptr], ptr, ptr, ptr }

; Function Attrs: inlinehint nounwind uwtable
define internal i32 @dt_pthread_mutex_unlock(ptr noundef %0) #3 {
  %2 = alloca ptr, align 8
  store ptr %0, ptr %2, align 8, !tbaa !138
  %3 = load ptr, ptr %2, align 8, !tbaa !138
  %4 = getelementptr inbounds nuw %struct.dt_pthread_mutex_t, ptr %3, i32 0, i32 0
  %5 = call i32 @pthread_mutex_unlock(ptr noundef %4) #11
  ret i32 %5
}

; Function Attrs: inlinehint nounwind uwtable
define internal i32 @dt_pthread_mutex_lock(ptr noundef %0) #3 {
  %2 = alloca ptr, align 8
  store ptr %0, ptr %2, align 8, !tbaa !138
  %3 = load ptr, ptr %2, align 8, !tbaa !138
  %4 = getelementptr inbounds nuw %struct.dt_pthread_mutex_t, ptr %3, i32 0, i32 0
  %5 = call i32 @pthread_mutex_lock(ptr noundef %4) #11
  ret i32 %5
}

; Function Attrs: nounwind uwtable
define internal i32 @_blendop_blendif_leave_delayed(ptr noundef %0) #0 {
  %2 = alloca ptr, align 8
  %3 = alloca ptr, align 8
  %4 = alloca ptr, align 8
  %5 = alloca i32, align 4
  store ptr %0, ptr %2, align 8, !tbaa !168
  call void @llvm.lifetime.start.p0(i64 8, ptr %3) #11
  %6 = load ptr, ptr %2, align 8, !tbaa !168
  store ptr %6, ptr %3, align 8, !tbaa !6
  call void @llvm.lifetime.start.p0(i64 8, ptr %4) #11
  %7 = load ptr, ptr %3, align 8, !tbaa !6
  %8 = getelementptr inbounds nuw %struct.dt_iop_module_t, ptr %7, i32 0, i32 88
  %9 = load ptr, ptr %8, align 8, !tbaa !15
  store ptr %9, ptr %4, align 8, !tbaa !31
  call void @llvm.lifetime.start.p0(i64 4, ptr %5) #11
  store i32 0, ptr %5, align 4, !tbaa !80
  %10 = load ptr, ptr %4, align 8, !tbaa !31
  %11 = getelementptr inbounds nuw %struct.dt_iop_gui_blend_data_t, ptr %10, i32 0, i32 54
  %12 = call i32 @dt_pthread_mutex_lock(ptr noundef %11)
  %13 = load ptr, ptr %4, align 8, !tbaa !31
  %14 = getelementptr inbounds nuw %struct.dt_iop_gui_blend_data_t, ptr %13, i32 0, i32 39
  %15 = load i32, ptr %14, align 8, !tbaa !157
  %16 = icmp ne i32 %15, 0
  br i1 %16, label %17, label %33

17:                                               ; preds = %1
  %18 = load ptr, ptr %3, align 8, !tbaa !6
  %19 = getelementptr inbounds nuw %struct.dt_iop_module_t, ptr %18, i32 0, i32 63
  %20 = load i32, ptr %19, align 16, !tbaa !158
  %21 = load ptr, ptr %4, align 8, !tbaa !31
  %22 = getelementptr inbounds nuw %struct.dt_iop_gui_blend_data_t, ptr %21, i32 0, i32 38
  %23 = load i32, ptr %22, align 4, !tbaa !159
  %24 = and i32 %23, -65537
  %25 = icmp ne i32 %20, %24
  br i1 %25, label %26, label %33

26:                                               ; preds = %17
  %27 = load ptr, ptr %4, align 8, !tbaa !31
  %28 = getelementptr inbounds nuw %struct.dt_iop_gui_blend_data_t, ptr %27, i32 0, i32 38
  %29 = load i32, ptr %28, align 4, !tbaa !159
  %30 = and i32 %29, -65537
  %31 = load ptr, ptr %3, align 8, !tbaa !6
  %32 = getelementptr inbounds nuw %struct.dt_iop_module_t, ptr %31, i32 0, i32 63
  store i32 %30, ptr %32, align 16, !tbaa !158
  store i32 1, ptr %5, align 4, !tbaa !80
  br label %33

33:                                               ; preds = %26, %17, %1
  %34 = load ptr, ptr %4, align 8, !tbaa !31
  %35 = getelementptr inbounds nuw %struct.dt_iop_gui_blend_data_t, ptr %34, i32 0, i32 39
  store i32 0, ptr %35, align 8, !tbaa !157
  %36 = load ptr, ptr %4, align 8, !tbaa !31
  %37 = getelementptr inbounds nuw %struct.dt_iop_gui_blend_data_t, ptr %36, i32 0, i32 54
  %38 = call i32 @dt_pthread_mutex_unlock(ptr noundef %37)
  %39 = load i32, ptr %5, align 4, !tbaa !80
  %40 = icmp ne i32 %39, 0
  br i1 %40, label %41, label %43

41:                                               ; preds = %33
  %42 = load ptr, ptr %3, align 8, !tbaa !6
  call void @dt_iop_refresh_center(ptr noundef %42)
  br label %43

43:                                               ; preds = %41, %33
  call void @llvm.lifetime.end.p0(i64 4, ptr %5) #11
  call void @llvm.lifetime.end.p0(i64 8, ptr %4) #11
  call void @llvm.lifetime.end.p0(i64 8, ptr %3) #11
  ret i32 0
}