; Function Attrs: nounwind uwtable
define internal noundef i32 @_blendop_blendif_leave_delayed(ptr noundef %0) #0 {
  %2 = getelementptr inbounds nuw i8, ptr %0, i64 776
  %3 = load ptr, ptr %2, align 8, !tbaa !6
  %4 = getelementptr inbounds nuw i8, ptr %3, i64 632
  %5 = tail call i32 @pthread_mutex_lock(ptr noundef nonnull %4) #18
  %6 = getelementptr inbounds nuw i8, ptr %3, i64 464
  %7 = load i32, ptr %6, align 8, !tbaa !143
  %.not = icmp eq i32 %7, 0
  br i1 %.not, label %15, label %8

8:                                                ; preds = %1
  %9 = getelementptr inbounds nuw i8, ptr %0, i64 496
  %10 = load i32, ptr %9, align 16, !tbaa !144
  %11 = getelementptr inbounds nuw i8, ptr %3, i64 460
  %12 = load i32, ptr %11, align 4, !tbaa !145
  %13 = and i32 %12, -65537
  %.not12 = icmp eq i32 %10, %13
  br i1 %.not12, label %15, label %.critedge

.critedge:                                        ; preds = %8
  store i32 %13, ptr %9, align 16, !tbaa !144
  store i32 0, ptr %6, align 8, !tbaa !143
  %14 = tail call i32 @pthread_mutex_unlock(ptr noundef nonnull %4) #18
  tail call void @dt_iop_refresh_center(ptr noundef nonnull %0) #18
  br label %17

15:                                               ; preds = %8, %1
  store i32 0, ptr %6, align 8, !tbaa !143
  %16 = tail call i32 @pthread_mutex_unlock(ptr noundef nonnull %4) #18
  br label %17

17:                                               ; preds = %15, %.critedge
  ret i32 0
}